; Function Attrs: nounwind uwtable
define ptr @l_Lake_LogT_takeAndRun___rarg___lambda__1(ptr noundef %0, ptr noundef %1, ptr noundef %2, ptr noundef %3) #1 {
  %5 = getelementptr inbounds nuw i8, ptr %3, i64 8
  %6 = load ptr, ptr %5, align 8, !tbaa !10
  %7 = ptrtoint ptr %6 to i64
  %8 = and i64 %7, 1
  %.not = icmp eq i64 %8, 0
  br i1 %.not, label %9, label %lean_inc.exit20

9:                                                ; preds = %4
  %.val.i = load i32, ptr %6, align 4, !tbaa !4
  %10 = icmp sgt i32 %.val.i, 0
  br i1 %10, label %11, label %13, !prof !9

11:                                               ; preds = %9
  %12 = add nuw i32 %.val.i, 1
  store i32 %12, ptr %6, align 4, !tbaa !4
  br label %lean_inc.exit20

13:                                               ; preds = %9
  %.not.i23 = icmp eq i32 %.val.i, 0
  br i1 %.not.i23, label %lean_inc.exit20, label %14

14:                                               ; preds = %13
  tail call void @lean_inc_ref_cold(ptr noundef nonnull %6) #9
  br label %lean_inc.exit20

lean_inc.exit20:                                  ; preds = %14, %13, %11, %4
  %15 = getelementptr inbounds nuw i8, ptr %3, i64 16
  %16 = load ptr, ptr %15, align 8, !tbaa !10
  %17 = ptrtoint ptr %16 to i64
  %18 = and i64 %17, 1
  %.not30 = icmp eq i64 %18, 0
  br i1 %.not30, label %19, label %lean_inc.exit19

19:                                               ; preds = %lean_inc.exit20
  %.val.i24 = load i32, ptr %16, align 4, !tbaa !4
  %20 = icmp sgt i32 %.val.i24, 0
  br i1 %20, label %21, label %23, !prof !9

21:                                               ; preds = %19
  %22 = add nuw i32 %.val.i24, 1
  store i32 %22, ptr %16, align 4, !tbaa !4
  br label %lean_inc.exit19

23:                                               ; preds = %19
  %.not.i25 = icmp eq i32 %.val.i24, 0
  br i1 %.not.i25, label %lean_inc.exit19, label %24

24:                                               ; preds = %23
  tail call void @lean_inc_ref_cold(ptr noundef nonnull %16) #9
  br label %lean_inc.exit19

lean_inc.exit19:                                  ; preds = %24, %23, %21, %lean_inc.exit20
  %25 = ptrtoint ptr %3 to i64
  %26 = and i64 %25, 1
  %.not31 = icmp eq i64 %26, 0
  br i1 %.not31, label %27, label %lean_dec.exit18

27:                                               ; preds = %lean_inc.exit19
  %28 = load i32, ptr %3, align 4, !tbaa !4
  %29 = icmp sgt i32 %28, 1
  br i1 %29, label %30, label %32, !prof !9

30:                                               ; preds = %27
  %31 = add nsw i32 %28, -1
  store i32 %31, ptr %3, align 4, !tbaa !4
  br label %lean_dec.exit18

32:                                               ; preds = %27
  %.not.i = icmp eq i32 %28, 0
  br i1 %.not.i, label %lean_dec.exit18, label %33

33:                                               ; preds = %32
  tail call void @lean_dec_ref_cold(ptr noundef nonnull %3) #9
  br label %lean_dec.exit18

lean_dec.exit18:                                  ; preds = %33, %32, %30, %lean_inc.exit19
  %34 = getelementptr inbounds nuw i8, ptr %0, i64 16
  %35 = load ptr, ptr %34, align 8, !tbaa !10
  %36 = ptrtoint ptr %35 to i64
  %37 = and i64 %36, 1
  %.not32 = icmp eq i64 %37, 0
  br i1 %.not32, label %38, label %lean_inc.exit

38:                                               ; preds = %lean_dec.exit18
  %.val.i27 = load i32, ptr %35, align 4, !tbaa !4
  %39 = icmp sgt i32 %.val.i27, 0
  br i1 %39, label %40, label %42, !prof !9

40:                                               ; preds = %38
  %41 = add nuw i32 %.val.i27, 1
  store i32 %41, ptr %35, align 4, !tbaa !4
  br label %lean_inc.exit

42:                                               ; preds = %38
  %.not.i28 = icmp eq i32 %.val.i27, 0
  br i1 %.not.i28, label %lean_inc.exit, label %43

43:                                               ; preds = %42
  tail call void @lean_inc_ref_cold(ptr noundef nonnull %35) #9
  br label %lean_inc.exit

lean_inc.exit:                                    ; preds = %43, %42, %40, %lean_dec.exit18
  %44 = ptrtoint ptr %0 to i64
  %45 = and i64 %44, 1
  %.not33 = icmp eq i64 %45, 0
  br i1 %.not33, label %46, label %lean_dec.exit

46:                                               ; preds = %lean_inc.exit
  %47 = load i32, ptr %0, align 4, !tbaa !4
  %48 = icmp sgt i32 %47, 1
  br i1 %48, label %49, label %51, !prof !9

49:                                               ; preds = %46
  %50 = add nsw i32 %47, -1
  store i32 %50, ptr %0, align 4, !tbaa !4
  br label %lean_dec.exit

51:                                               ; preds = %46
  %.not.i21 = icmp eq i32 %47, 0
  br i1 %.not.i21, label %lean_dec.exit, label %52

52:                                               ; preds = %51
  tail call void @lean_dec_ref_cold(ptr noundef nonnull %0) #9
  br label %lean_dec.exit

lean_dec.exit:                                    ; preds = %52, %51, %49, %lean_inc.exit
  %53 = tail call ptr @lean_apply_1(ptr noundef %35, ptr noundef %16) #9
  tail call void @lean_inc_heartbeat() #9
  %54 = tail call noalias ptr @mi_malloc_small(i64 noundef 40) #9
  %55 = icmp eq ptr %54, null
  br i1 %55, label %56, label %lean_alloc_closure.exit

56:                                               ; preds = %lean_dec.exit
  tail call void @lean_internal_panic_out_of_memory() #10
  unreachable

lean_alloc_closure.exit:                          ; preds = %lean_dec.exit
  %57 = getelementptr inbounds nuw i8, ptr %54, i64 4
  store i32 1, ptr %54, align 4, !tbaa !4
  store i32 -184549336, ptr %57, align 4
  %58 = getelementptr inbounds nuw i8, ptr %54, i64 8
  store ptr @l_Lake_withLoggedIO___rarg___lambda__1___boxed, ptr %58, align 8, !tbaa !10
  %59 = getelementptr inbounds nuw i8, ptr %54, i64 16
  store i16 3, ptr %59, align 8, !tbaa !12
  %60 = getelementptr inbounds nuw i8, ptr %54, i64 18
  store i16 2, ptr %60, align 2, !tbaa !12
  %61 = getelementptr inbounds nuw i8, ptr %54, i64 24
  store ptr %1, ptr %61, align 8, !tbaa !10
  %62 = getelementptr inbounds nuw i8, ptr %54, i64 32
  store ptr %6, ptr %62, align 8, !tbaa !10
  %63 = tail call ptr @lean_apply_4(ptr noundef %2, ptr noundef nonnull inttoptr (i64 1 to ptr), ptr noundef nonnull inttoptr (i64 1 to ptr), ptr noundef %53, ptr noundef nonnull %54) #9
  ret ptr %63
}